target datalayout = "e-m:e-p270:32:32-p271:32:32-p272:64:64-i64:64-i128:128-f80:128-n8:16:32:64-S128"
target triple = "x86_64-pc-linux-gnu"

%struct._http_conv_t = type { ptr, ptr, i32, i32, ptr, ptr, ptr, i16, %struct._address, ptr, i8, ptr, ptr }
%struct._address = type { i32, i32, ptr, ptr }
%struct._packet_info = type { ptr, ptr, i32, i32, %struct.nstime_t, %struct.nstime_t, %struct.nstime_t, i8, ptr, ptr, ptr, ptr, %struct._address, %struct._address, %struct._address, %struct._address, %struct._address, %struct._address, i32, ptr, i8, [3 x i8], %struct.anon.1, i32, i32, i32, i32, ptr, i8, ptr, ptr, i16, i16, i32, i32, i16, i32, i32, ptr, ptr, ptr, i8, i8, i16, i16, i16, i32, i16, i16, ptr, ptr, ptr, ptr, ptr, i32, i32 }
%struct.nstime_t = type { i64, i32 }
%struct.anon.1 = type { i8, [3 x i8] }

@.str.302 = private unnamed_addr constant [5 x i8] c"HTTP\00", align 1
@proto_http = internal global i32 0, align 4

; Function Attrs: null_pointer_is_valid sspstrong uwtable
define internal i32 @dissect_http_on_stream(ptr noundef %0, ptr noundef %1, ptr noundef %2, ptr noundef %3, i1 noundef zeroext %4, ptr noundef %5) #0 {
  %7 = alloca ptr, align 8
  %8 = alloca ptr, align 8
  %9 = alloca ptr, align 8
  %10 = alloca ptr, align 8
  %11 = alloca i8, align 1
  %12 = alloca ptr, align 8
  %13 = alloca i32, align 4
  %14 = alloca i32, align 4
  store ptr %0, ptr %7, align 8
  store ptr %1, ptr %8, align 8
  store ptr %2, ptr %9, align 8
  store ptr %3, ptr %10, align 8
  %15 = zext i1 %4 to i8
  store i8 %15, ptr %11, align 1
  store ptr %5, ptr %12, align 8
  call void @llvm.lifetime.start.p0(i64 4, ptr %13) #19
  store i32 0, ptr %13, align 4
  call void @llvm.lifetime.start.p0(i64 4, ptr %14) #19
  store i32 0, ptr %14, align 4
  br label %16

16:                                               ; preds = %107, %6
  %17 = load ptr, ptr %7, align 8
  %18 = load i32, ptr %13, align 4
  %19 = call i32 @tvb_reported_length_remaining(ptr noundef %17, i32 noundef %18)
  %20 = icmp sgt i32 %19, 0
  br i1 %20, label %21, label %114

21:                                               ; preds = %16
  %22 = load ptr, ptr %10, align 8
  %23 = getelementptr inbounds nuw %struct._http_conv_t, ptr %22, i32 0, i32 2
  %24 = load i32, ptr %23, align 8
  %25 = icmp ne i32 %24, 0
  br i1 %25, label %26, label %93

26:                                               ; preds = %21
  %27 = load ptr, ptr %8, align 8
  %28 = getelementptr inbounds nuw %struct._packet_info, ptr %27, i32 0, i32 3
  %29 = load i32, ptr %28, align 4
  %30 = load ptr, ptr %10, align 8
  %31 = getelementptr inbounds nuw %struct._http_conv_t, ptr %30, i32 0, i32 2
  %32 = load i32, ptr %31, align 8
  %33 = icmp ugt i32 %29, %32
  br i1 %33, label %48, label %34

34:                                               ; preds = %26
  %35 = load ptr, ptr %8, align 8
  %36 = getelementptr inbounds nuw %struct._packet_info, ptr %35, i32 0, i32 3
  %37 = load i32, ptr %36, align 4
  %38 = load ptr, ptr %10, align 8
  %39 = getelementptr inbounds nuw %struct._http_conv_t, ptr %38, i32 0, i32 2
  %40 = load i32, ptr %39, align 8
  %41 = icmp eq i32 %37, %40
  br i1 %41, label %42, label %93

42:                                               ; preds = %34
  %43 = load i32, ptr %13, align 4
  %44 = load ptr, ptr %10, align 8
  %45 = getelementptr inbounds nuw %struct._http_conv_t, ptr %44, i32 0, i32 3
  %46 = load i32, ptr %45, align 4
  %47 = icmp sge i32 %43, %46
  br i1 %47, label %48, label %93

48:                                               ; preds = %42, %26
  %49 = load ptr, ptr %8, align 8
  %50 = getelementptr inbounds nuw %struct._packet_info, ptr %49, i32 0, i32 31
  %51 = load i16, ptr %50, align 8
  %52 = zext i16 %51 to i32
  %53 = icmp sgt i32 %52, 0
  br i1 %53, label %54, label %59

54:                                               ; preds = %48
  %55 = load ptr, ptr %8, align 8
  %56 = getelementptr inbounds nuw %struct._packet_info, ptr %55, i32 0, i32 31
  %57 = load i16, ptr %56, align 8
  %58 = add i16 %57, 1
  store i16 %58, ptr %56, align 8
  br label %59

59:                                               ; preds = %54, %48
  %60 = load ptr, ptr %10, align 8
  %61 = getelementptr inbounds nuw %struct._http_conv_t, ptr %60, i32 0, i32 4
  %62 = load ptr, ptr %61, align 8
  %63 = icmp ne ptr %62, null
  br i1 %63, label %64, label %74

64:                                               ; preds = %59
  %65 = load ptr, ptr %10, align 8
  %66 = getelementptr inbounds nuw %struct._http_conv_t, ptr %65, i32 0, i32 4
  %67 = load ptr, ptr %66, align 8
  %68 = load ptr, ptr %7, align 8
  %69 = load i32, ptr %13, align 4
  %70 = call ptr @tvb_new_subset_remaining(ptr noundef %68, i32 noundef %69)
  %71 = load ptr, ptr %8, align 8
  %72 = load ptr, ptr %9, align 8
  %73 = call i32 @call_dissector_only(ptr noundef %67, ptr noundef %70, ptr noundef %71, ptr noundef %72, ptr noundef null)
  br label %81

74:                                               ; preds = %59
  %75 = load ptr, ptr %7, align 8
  %76 = load i32, ptr %13, align 4
  %77 = call ptr @tvb_new_subset_remaining(ptr noundef %75, i32 noundef %76)
  %78 = load ptr, ptr %8, align 8
  %79 = load ptr, ptr %9, align 8
  %80 = call i32 @call_data_dissector(ptr noundef %77, ptr noundef %78, ptr noundef %79)
  br label %81

81:                                               ; preds = %74, %64
  %82 = load ptr, ptr %8, align 8
  %83 = getelementptr inbounds nuw %struct._packet_info, ptr %82, i32 0, i32 34
  %84 = load i32, ptr %83, align 8
  %85 = icmp ne i32 %84, 0
  br i1 %85, label %86, label %92

86:                                               ; preds = %81
  %87 = load i32, ptr %13, align 4
  %88 = load ptr, ptr %8, align 8
  %89 = getelementptr inbounds nuw %struct._packet_info, ptr %88, i32 0, i32 33
  %90 = load i32, ptr %89, align 4
  %91 = add i32 %90, %87
  store i32 %91, ptr %89, align 4
  br label %92

92:                                               ; preds = %86, %81
  br label %114

93:                                               ; preds = %42, %34, %21
  %94 = load ptr, ptr %7, align 8
  %95 = load i32, ptr %13, align 4
  %96 = load ptr, ptr %8, align 8
  %97 = load ptr, ptr %9, align 8
  %98 = load ptr, ptr %10, align 8
  %99 = load i32, ptr @proto_http, align 4
  %100 = load i8, ptr %11, align 1, !range !9, !noundef !10
  %101 = trunc i8 %100 to i1
  %102 = load ptr, ptr %12, align 8
  %103 = call i32 @dissect_http_message(ptr noundef %94, i32 noundef %95, ptr noundef %96, ptr noundef %97, ptr noundef %98, ptr noundef @.str.302, i32 noundef %99, i1 noundef zeroext %101, ptr noundef %102)
  store i32 %103, ptr %14, align 4
  %104 = load i32, ptr %14, align 4
  %105 = icmp slt i32 %104, 0
  br i1 %105, label %106, label %107

106:                                              ; preds = %93
  br label %114

107:                                              ; preds = %93
  %108 = load i32, ptr %14, align 4
  %109 = load i32, ptr %13, align 4
  %110 = add i32 %109, %108
  store i32 %110, ptr %13, align 4
  %111 = load ptr, ptr %8, align 8
  %112 = getelementptr inbounds nuw %struct._packet_info, ptr %111, i32 0, i32 1
  %113 = load ptr, ptr %112, align 8
  call void @col_set_fence(ptr noundef %113, i32 noundef 25)
  br label %16, !llvm.loop !15

114:                                              ; preds = %106, %92, %16
  %115 = load i32, ptr %14, align 4
  %116 = icmp eq i32 %115, -2
  br i1 %116, label %117, label %118

117:                                              ; preds = %114
  br label %121

118:                                              ; preds = %114
  %119 = load ptr, ptr %7, align 8
  %120 = call i32 @tvb_captured_length(ptr noundef %119)
  br label %121

121:                                              ; preds = %118, %117
  %122 = phi i32 [ 0, %117 ], [ %120, %118 ]
  call void @llvm.lifetime.end.p0(i64 4, ptr %14) #19
  call void @llvm.lifetime.end.p0(i64 4, ptr %13) #19
  ret i32 %122
}