; Function Attrs: null_pointer_is_valid sspstrong uwtable
define internal fastcc i32 @dissect_http_on_stream(ptr noundef %0, ptr noundef %1, ptr noundef %2, ptr noundef %3, i1 noundef zeroext %4, ptr noundef captures(address_is_null) %5) unnamed_addr #0 {
  %7 = tail call i32 @tvb_reported_length_remaining(ptr noundef %0, i32 noundef 0)
  %8 = icmp sgt i32 %7, 0
  br i1 %8, label %.lr.ph, label %.thread

.lr.ph:                                           ; preds = %6
  %9 = getelementptr inbounds nuw i8, ptr %3, i64 16
  %10 = getelementptr inbounds nuw i8, ptr %1, i64 20
  %11 = getelementptr inbounds nuw i8, ptr %3, i64 20
  %12 = getelementptr inbounds nuw i8, ptr %1, i64 8
  br label %13

13:                                               ; preds = %.lr.ph, %46
  %.03649 = phi i32 [ 0, %.lr.ph ], [ %47, %46 ]
  %14 = load i32, ptr %9, align 8
  %.not = icmp eq i32 %14, 0
  br i1 %.not, label %42, label %15

15:                                               ; preds = %13
  %16 = load i32, ptr %10, align 4
  %17 = icmp ugt i32 %16, %14
  br i1 %17, label %22, label %18

18:                                               ; preds = %15
  %19 = icmp eq i32 %16, %14
  br i1 %19, label %20, label %42

20:                                               ; preds = %18
  %21 = load i32, ptr %11, align 4
  %.not42 = icmp slt i32 %.03649, %21
  br i1 %.not42, label %42, label %22

22:                                               ; preds = %20, %15
  %23 = getelementptr inbounds nuw i8, ptr %1, i64 328
  %24 = load i16, ptr %23, align 8
  %.not43 = icmp eq i16 %24, 0
  br i1 %.not43, label %27, label %25

25:                                               ; preds = %22
  %26 = add i16 %24, 1
  store i16 %26, ptr %23, align 8
  br label %27

27:                                               ; preds = %25, %22
  %28 = getelementptr inbounds nuw i8, ptr %3, i64 24
  %29 = load ptr, ptr %28, align 8
  %.not44 = icmp eq ptr %29, null
  %30 = tail call ptr @tvb_new_subset_remaining(ptr noundef %0, i32 noundef %.03649)
  br i1 %.not44, label %33, label %31

31:                                               ; preds = %27
  %32 = tail call i32 @call_dissector_only(ptr noundef nonnull %29, ptr noundef %30, ptr noundef %1, ptr noundef %2, ptr noundef null)
  br label %35

33:                                               ; preds = %27
  %34 = tail call i32 @call_data_dissector(ptr noundef %30, ptr noundef %1, ptr noundef %2)
  br label %35

35:                                               ; preds = %33, %31
  %36 = getelementptr inbounds nuw i8, ptr %1, i64 336
  %37 = load i32, ptr %36, align 8
  %.not45 = icmp eq i32 %37, 0
  br i1 %.not45, label %.thread, label %38

38:                                               ; preds = %35
  %39 = getelementptr inbounds nuw i8, ptr %1, i64 332
  %40 = load i32, ptr %39, align 4
  %41 = add i32 %40, %.03649
  store i32 %41, ptr %39, align 4
  br label %.thread

42:                                               ; preds = %20, %18, %13
  %43 = load i32, ptr @proto_http, align 4
  %44 = tail call fastcc i32 @dissect_http_message(ptr noundef %0, i32 noundef %.03649, ptr noundef %1, ptr noundef %2, ptr noundef %3, ptr noundef nonnull @.str.302, i32 noundef %43, i1 noundef zeroext %4, ptr noundef %5)
  %45 = icmp slt i32 %44, 0
  br i1 %45, label %51, label %46

46:                                               ; preds = %42
  %47 = add i32 %44, %.03649
  %48 = load ptr, ptr %12, align 8
  tail call void @col_set_fence(ptr noundef %48, i32 noundef 25)
  %49 = tail call i32 @tvb_reported_length_remaining(ptr noundef %0, i32 noundef %47)
  %50 = icmp sgt i32 %49, 0
  br i1 %50, label %13, label %.thread, !llvm.loop !16

51:                                               ; preds = %42
  %52 = icmp eq i32 %44, -2
  br i1 %52, label %54, label %.thread

.thread:                                          ; preds = %46, %6, %35, %38, %51
  %53 = tail call i32 @tvb_captured_length(ptr noundef %0)
  br label %54

54:                                               ; preds = %51, %.thread
  %55 = phi i32 [ %53, %.thread ], [ 0, %51 ]
  ret i32 %55
}